target datalayout = "e-m:e-p270:32:32-p271:32:32-p272:64:64-i64:64-i128:128-f80:128-n8:16:32:64-S128"
target triple = "x86_64-pc-linux-gnu"

%struct._GList = type { ptr, ptr, ptr }
%struct._extcap_interface = type { ptr, ptr, ptr, ptr, ptr, i32 }
%struct.extcap_run_extcaps_info = type { ptr, ptr, i32, ptr }
%struct.extcap_iface_info = type { ptr, ptr }
%struct.thread_pool = type { ptr, i32, %struct._GCond, %union._GMutex }
%struct._GCond = type { ptr, [2 x i32] }
%union._GMutex = type { ptr }
%struct.extcap_run_task = type { ptr, ptr, ptr, ptr }

@.str.2 = private unnamed_addr constant [19 x i8] c"--extcap-interface\00", align 1
@.str.9 = private unnamed_addr constant [16 x i8] c"--extcap-config\00", align 1

; Function Attrs: null_pointer_is_valid sspstrong uwtable
define internal zeroext i1 @thread_pool_push(ptr noundef %0, ptr noundef %1, ptr noundef %2) #0 {
  %4 = alloca ptr, align 8
  %5 = alloca ptr, align 8
  %6 = alloca ptr, align 8
  store ptr %0, ptr %4, align 8
  store ptr %1, ptr %5, align 8
  store ptr %2, ptr %6, align 8
  %7 = load ptr, ptr %4, align 8
  %8 = getelementptr inbounds nuw %struct.thread_pool, ptr %7, i32 0, i32 3
  call void @g_mutex_lock(ptr noundef %8)
  %9 = load ptr, ptr %4, align 8
  %10 = getelementptr inbounds nuw %struct.thread_pool, ptr %9, i32 0, i32 1
  %11 = load i32, ptr %10, align 8
  %12 = add i32 %11, 1
  store i32 %12, ptr %10, align 8
  %13 = load ptr, ptr %4, align 8
  %14 = getelementptr inbounds nuw %struct.thread_pool, ptr %13, i32 0, i32 3
  call void @g_mutex_unlock(ptr noundef %14)
  %15 = load ptr, ptr %4, align 8
  %16 = getelementptr inbounds nuw %struct.thread_pool, ptr %15, i32 0, i32 0
  %17 = load ptr, ptr %16, align 8
  %18 = load ptr, ptr %5, align 8
  %19 = load ptr, ptr %6, align 8
  %20 = call i32 @g_thread_pool_push(ptr noundef %17, ptr noundef %18, ptr noundef %19)
  %21 = icmp ne i32 %20, 0
  ret i1 %21
}

; Function Attrs: null_pointer_is_valid sspstrong uwtable
define internal void @extcap_process_interfaces_cb(ptr noundef %0, ptr noundef %1, ptr noundef %2) #0 {
  %4 = alloca ptr, align 8
  %5 = alloca ptr, align 8
  %6 = alloca ptr, align 8
  %7 = alloca ptr, align 8
  %8 = alloca i32, align 4
  %9 = alloca i32, align 4
  %10 = alloca i32, align 4
  %11 = alloca ptr, align 8
  %12 = alloca ptr, align 8
  %13 = alloca ptr, align 8
  %14 = alloca i64, align 8
  %15 = alloca i64, align 8
  %16 = alloca ptr, align 8
  %17 = alloca ptr, align 8
  %18 = alloca ptr, align 8
  %19 = alloca ptr, align 8
  %20 = alloca [4 x ptr], align 16
  %21 = alloca ptr, align 8
  %22 = alloca i64, align 8
  %23 = alloca i64, align 8
  %24 = alloca ptr, align 8
  %25 = alloca ptr, align 8
  %26 = alloca ptr, align 8
  store ptr %0, ptr %4, align 8
  store ptr %1, ptr %5, align 8
  store ptr %2, ptr %6, align 8
  call void @llvm.lifetime.start.p0(i64 8, ptr %7) #9
  %27 = load ptr, ptr %5, align 8
  store ptr %27, ptr %7, align 8
  call void @llvm.lifetime.start.p0(i64 4, ptr %8) #9
  store i32 0, ptr %8, align 4
  call void @llvm.lifetime.start.p0(i64 4, ptr %9) #9
  store i32 0, ptr %9, align 4
  %28 = load ptr, ptr %6, align 8
  %29 = icmp ne ptr %28, null
  br i1 %29, label %31, label %30

30:                                               ; preds = %3
  store i32 1, ptr %10, align 4
  br label %202

31:                                               ; preds = %3
  %32 = load ptr, ptr %6, align 8
  %33 = load ptr, ptr %7, align 8
  %34 = getelementptr inbounds nuw %struct.extcap_run_extcaps_info, ptr %33, i32 0, i32 1
  store ptr %32, ptr %34, align 8
  call void @llvm.lifetime.start.p0(i64 8, ptr %11) #9
  %35 = load ptr, ptr %6, align 8
  %36 = call ptr @extcap_parse_interfaces(ptr noundef %35, ptr noundef null)
  store ptr %36, ptr %11, align 8
  call void @llvm.lifetime.start.p0(i64 8, ptr %12) #9
  %37 = load ptr, ptr %11, align 8
  store ptr %37, ptr %12, align 8
  br label %38

38:                                               ; preds = %62, %31
  %39 = load ptr, ptr %12, align 8
  %40 = icmp ne ptr %39, null
  br i1 %40, label %42, label %41

41:                                               ; preds = %38
  store i32 2, ptr %10, align 4
  call void @llvm.lifetime.end.p0(i64 8, ptr %12) #9
  br label %64

42:                                               ; preds = %38
  call void @llvm.lifetime.start.p0(i64 8, ptr %13) #9
  %43 = load ptr, ptr %12, align 8
  %44 = getelementptr inbounds nuw %struct._GList, ptr %43, i32 0, i32 0
  %45 = load ptr, ptr %44, align 8
  store ptr %45, ptr %13, align 8
  %46 = load ptr, ptr %13, align 8
  %47 = getelementptr inbounds nuw %struct._extcap_interface, ptr %46, i32 0, i32 5
  %48 = load i32, ptr %47, align 8
  %49 = icmp eq i32 %48, 4
  br i1 %49, label %50, label %53

50:                                               ; preds = %42
  %51 = load i32, ptr %9, align 4
  %52 = add i32 %51, 1
  store i32 %52, ptr %9, align 4
  br label %53

53:                                               ; preds = %50, %42
  call void @llvm.lifetime.end.p0(i64 8, ptr %13) #9
  br label %54

54:                                               ; preds = %53
  %55 = load ptr, ptr %12, align 8
  %56 = icmp ne ptr %55, null
  br i1 %56, label %57, label %61

57:                                               ; preds = %54
  %58 = load ptr, ptr %12, align 8
  %59 = getelementptr inbounds nuw %struct._GList, ptr %58, i32 0, i32 1
  %60 = load ptr, ptr %59, align 8
  br label %62

61:                                               ; preds = %54
  br label %62

62:                                               ; preds = %61, %57
  %63 = phi ptr [ %60, %57 ], [ null, %61 ]
  store ptr %63, ptr %12, align 8
  br label %38, !llvm.loop !33

64:                                               ; preds = %41
  %65 = load i32, ptr %9, align 4
  %66 = icmp eq i32 %65, 0
  br i1 %66, label %67, label %69

67:                                               ; preds = %64
  %68 = load ptr, ptr %11, align 8
  call void @g_list_free_full(ptr noundef %68, ptr noundef @extcap_free_interface)
  store i32 1, ptr %10, align 4
  br label %201

69:                                               ; preds = %64
  call void @llvm.lifetime.start.p0(i64 8, ptr %14) #9
  %70 = load i32, ptr %9, align 4
  %71 = zext i32 %70 to i64
  store i64 %71, ptr %14, align 8
  call void @llvm.lifetime.start.p0(i64 8, ptr %15) #9
  store i64 16, ptr %15, align 8
  call void @llvm.lifetime.start.p0(i64 8, ptr %16) #9
  %72 = load i64, ptr %15, align 8
  %73 = icmp eq i64 %72, 1
  br i1 %73, label %74, label %77

74:                                               ; preds = %69
  %75 = load i64, ptr %14, align 8
  %76 = call noalias ptr @g_malloc0(i64 noundef %75) #10
  store ptr %76, ptr %16, align 8
  br label %98

77:                                               ; preds = %69
  %78 = load i64, ptr %14, align 8
  %79 = call i1 @llvm.is.constant.i64(i64 %78)
  br i1 %79, label %80, label %93

80:                                               ; preds = %77
  %81 = load i64, ptr %15, align 8
  %82 = icmp eq i64 %81, 0
  br i1 %82, label %88, label %83

83:                                               ; preds = %80
  %84 = load i64, ptr %14, align 8
  %85 = load i64, ptr %15, align 8
  %86 = udiv i64 -1, %85
  %87 = icmp ule i64 %84, %86
  br i1 %87, label %88, label %93

88:                                               ; preds = %83, %80
  %89 = load i64, ptr %14, align 8
  %90 = load i64, ptr %15, align 8
  %91 = mul i64 %89, %90
  %92 = call noalias ptr @g_malloc0(i64 noundef %91) #10
  store ptr %92, ptr %16, align 8
  br label %97

93:                                               ; preds = %83, %77
  %94 = load i64, ptr %14, align 8
  %95 = load i64, ptr %15, align 8
  %96 = call noalias ptr @g_malloc0_n(i64 noundef %94, i64 noundef %95) #11
  store ptr %96, ptr %16, align 8
  br label %97

97:                                               ; preds = %93, %88
  br label %98

98:                                               ; preds = %97, %74
  %99 = load ptr, ptr %16, align 8
  store ptr %99, ptr %17, align 8
  call void @llvm.lifetime.end.p0(i64 8, ptr %16) #9
  call void @llvm.lifetime.end.p0(i64 8, ptr %15) #9
  call void @llvm.lifetime.end.p0(i64 8, ptr %14) #9
  %100 = load ptr, ptr %17, align 8
  %101 = load ptr, ptr %7, align 8
  %102 = getelementptr inbounds nuw %struct.extcap_run_extcaps_info, ptr %101, i32 0, i32 3
  store ptr %100, ptr %102, align 8
  %103 = load i32, ptr %9, align 4
  %104 = load ptr, ptr %7, align 8
  %105 = getelementptr inbounds nuw %struct.extcap_run_extcaps_info, ptr %104, i32 0, i32 2
  store i32 %103, ptr %105, align 8
  call void @llvm.lifetime.start.p0(i64 8, ptr %18) #9
  %106 = load ptr, ptr %11, align 8
  store ptr %106, ptr %18, align 8
  br label %107

107:                                              ; preds = %197, %98
  %108 = load ptr, ptr %18, align 8
  %109 = icmp ne ptr %108, null
  br i1 %109, label %111, label %110

110:                                              ; preds = %107
  store i32 5, ptr %10, align 4
  call void @llvm.lifetime.end.p0(i64 8, ptr %18) #9
  br label %199

111:                                              ; preds = %107
  call void @llvm.lifetime.start.p0(i64 8, ptr %19) #9
  %112 = load ptr, ptr %18, align 8
  %113 = getelementptr inbounds nuw %struct._GList, ptr %112, i32 0, i32 0
  %114 = load ptr, ptr %113, align 8
  store ptr %114, ptr %19, align 8
  %115 = load ptr, ptr %19, align 8
  %116 = getelementptr inbounds nuw %struct._extcap_interface, ptr %115, i32 0, i32 5
  %117 = load i32, ptr %116, align 8
  %118 = icmp ne i32 %117, 4
  br i1 %118, label %119, label %120

119:                                              ; preds = %111
  store i32 7, ptr %10, align 4
  br label %186

120:                                              ; preds = %111
  call void @llvm.lifetime.start.p0(i64 32, ptr %20) #9
  store ptr @.str.9, ptr %20, align 8
  %121 = getelementptr inbounds ptr, ptr %20, i64 1
  store ptr @.str.2, ptr %121, align 8
  %122 = getelementptr inbounds ptr, ptr %20, i64 2
  %123 = load ptr, ptr %19, align 8
  %124 = getelementptr inbounds nuw %struct._extcap_interface, ptr %123, i32 0, i32 0
  %125 = load ptr, ptr %124, align 8
  store ptr %125, ptr %122, align 8
  %126 = getelementptr inbounds ptr, ptr %20, i64 3
  store ptr null, ptr %126, align 8
  call void @llvm.lifetime.start.p0(i64 8, ptr %21) #9
  call void @llvm.lifetime.start.p0(i64 8, ptr %22) #9
  store i64 1, ptr %22, align 8
  call void @llvm.lifetime.start.p0(i64 8, ptr %23) #9
  store i64 32, ptr %23, align 8
  call void @llvm.lifetime.start.p0(i64 8, ptr %24) #9
  %127 = load i64, ptr %23, align 8
  %128 = icmp eq i64 %127, 1
  br i1 %128, label %129, label %132

129:                                              ; preds = %120
  %130 = load i64, ptr %22, align 8
  %131 = call noalias ptr @g_malloc0(i64 noundef %130) #10
  store ptr %131, ptr %24, align 8
  br label %153

132:                                              ; preds = %120
  %133 = load i64, ptr %22, align 8
  %134 = call i1 @llvm.is.constant.i64(i64 %133)
  br i1 %134, label %135, label %148

135:                                              ; preds = %132
  %136 = load i64, ptr %23, align 8
  %137 = icmp eq i64 %136, 0
  br i1 %137, label %143, label %138

138:                                              ; preds = %135
  %139 = load i64, ptr %22, align 8
  %140 = load i64, ptr %23, align 8
  %141 = udiv i64 -1, %140
  %142 = icmp ule i64 %139, %141
  br i1 %142, label %143, label %148

143:                                              ; preds = %138, %135
  %144 = load i64, ptr %22, align 8
  %145 = load i64, ptr %23, align 8
  %146 = mul i64 %144, %145
  %147 = call noalias ptr @g_malloc0(i64 noundef %146) #10
  store ptr %147, ptr %24, align 8
  br label %152

148:                                              ; preds = %138, %132
  %149 = load i64, ptr %22, align 8
  %150 = load i64, ptr %23, align 8
  %151 = call noalias ptr @g_malloc0_n(i64 noundef %149, i64 noundef %150) #11
  store ptr %151, ptr %24, align 8
  br label %152

152:                                              ; preds = %148, %143
  br label %153

153:                                              ; preds = %152, %129
  %154 = load ptr, ptr %24, align 8
  store ptr %154, ptr %25, align 8
  call void @llvm.lifetime.end.p0(i64 8, ptr %24) #9
  call void @llvm.lifetime.end.p0(i64 8, ptr %23) #9
  call void @llvm.lifetime.end.p0(i64 8, ptr %22) #9
  %155 = load ptr, ptr %25, align 8
  store ptr %155, ptr %21, align 8
  call void @llvm.lifetime.start.p0(i64 8, ptr %26) #9
  %156 = load ptr, ptr %7, align 8
  %157 = getelementptr inbounds nuw %struct.extcap_run_extcaps_info, ptr %156, i32 0, i32 3
  %158 = load ptr, ptr %157, align 8
  %159 = load i32, ptr %8, align 4
  %160 = add i32 %159, 1
  store i32 %160, ptr %8, align 4
  %161 = zext i32 %159 to i64
  %162 = getelementptr %struct.extcap_iface_info, ptr %158, i64 %161
  store ptr %162, ptr %26, align 8
  %163 = load ptr, ptr %7, align 8
  %164 = getelementptr inbounds nuw %struct.extcap_run_extcaps_info, ptr %163, i32 0, i32 0
  %165 = load ptr, ptr %164, align 8
  %166 = load ptr, ptr %21, align 8
  %167 = getelementptr inbounds nuw %struct.extcap_run_task, ptr %166, i32 0, i32 0
  store ptr %165, ptr %167, align 8
  %168 = getelementptr inbounds [4 x ptr], ptr %20, i64 0, i64 0
  %169 = call ptr @g_strdupv(ptr noundef %168)
  %170 = load ptr, ptr %21, align 8
  %171 = getelementptr inbounds nuw %struct.extcap_run_task, ptr %170, i32 0, i32 1
  store ptr %169, ptr %171, align 8
  %172 = load ptr, ptr %21, align 8
  %173 = getelementptr inbounds nuw %struct.extcap_run_task, ptr %172, i32 0, i32 2
  store ptr @extcap_process_config_cb, ptr %173, align 8
  %174 = load ptr, ptr %26, align 8
  %175 = load ptr, ptr %21, align 8
  %176 = getelementptr inbounds nuw %struct.extcap_run_task, ptr %175, i32 0, i32 3
  store ptr %174, ptr %176, align 8
  %177 = load ptr, ptr %19, align 8
  %178 = getelementptr inbounds nuw %struct._extcap_interface, ptr %177, i32 0, i32 0
  %179 = load ptr, ptr %178, align 8
  %180 = call noalias ptr @g_strdup(ptr noundef %179)
  %181 = load ptr, ptr %26, align 8
  %182 = getelementptr inbounds nuw %struct.extcap_iface_info, ptr %181, i32 0, i32 0
  store ptr %180, ptr %182, align 8
  %183 = load ptr, ptr %4, align 8
  %184 = load ptr, ptr %21, align 8
  %185 = call zeroext i1 @thread_pool_push(ptr noundef %183, ptr noundef %184, ptr noundef null)
  call void @llvm.lifetime.end.p0(i64 8, ptr %26) #9
  call void @llvm.lifetime.end.p0(i64 8, ptr %21) #9
  call void @llvm.lifetime.end.p0(i64 32, ptr %20) #9
  store i32 0, ptr %10, align 4
  br label %186

186:                                              ; preds = %153, %119
  call void @llvm.lifetime.end.p0(i64 8, ptr %19) #9
  %187 = load i32, ptr %10, align 4
  switch i32 %187, label %205 [
    i32 0, label %188
    i32 7, label %189
  ]

188:                                              ; preds = %186
  br label %189

189:                                              ; preds = %188, %186
  %190 = load ptr, ptr %18, align 8
  %191 = icmp ne ptr %190, null
  br i1 %191, label %192, label %196

192:                                              ; preds = %189
  %193 = load ptr, ptr %18, align 8
  %194 = getelementptr inbounds nuw %struct._GList, ptr %193, i32 0, i32 1
  %195 = load ptr, ptr %194, align 8
  br label %197

196:                                              ; preds = %189
  br label %197

197:                                              ; preds = %196, %192
  %198 = phi ptr [ %195, %192 ], [ null, %196 ]
  store ptr %198, ptr %18, align 8
  br label %107, !llvm.loop !34

199:                                              ; preds = %110
  %200 = load ptr, ptr %11, align 8
  call void @g_list_free_full(ptr noundef %200, ptr noundef @extcap_free_interface)
  store i32 0, ptr %10, align 4
  br label %201

201:                                              ; preds = %199, %67
  call void @llvm.lifetime.end.p0(i64 8, ptr %11) #9
  br label %202

202:                                              ; preds = %201, %30
  call void @llvm.lifetime.end.p0(i64 4, ptr %9) #9
  call void @llvm.lifetime.end.p0(i64 4, ptr %8) #9
  call void @llvm.lifetime.end.p0(i64 8, ptr %7) #9
  %203 = load i32, ptr %10, align 4
  switch i32 %203, label %205 [
    i32 0, label %204
    i32 1, label %204
  ]

204:                                              ; preds = %202, %202
  ret void

205:                                              ; preds = %202, %186
  unreachable
}