; Function Attrs: null_pointer_is_valid sspstrong uwtable
define internal void @extcap_process_interfaces_cb(ptr noundef %0, ptr noundef captures(none) %1, ptr noundef %2) #0 {
  %4 = alloca [4 x ptr], align 16
  %.not = icmp eq ptr %2, null
  br i1 %.not, label %50, label %5

5:                                                ; preds = %3
  %6 = getelementptr inbounds nuw i8, ptr %1, i64 8
  store ptr %2, ptr %6, align 8
  %7 = tail call ptr @extcap_parse_interfaces(ptr noundef nonnull %2, ptr noundef null)
  %.not6871 = icmp eq ptr %7, null
  br i1 %.not6871, label %._crit_edge.thread, label %.lr.ph

._crit_edge:                                      ; preds = %.lr.ph
  %8 = icmp eq i32 %spec.select, 0
  br i1 %8, label %._crit_edge.thread, label %.lr.ph78

.lr.ph:                                           ; preds = %5, %.lr.ph
  %.06173 = phi i32 [ %spec.select, %.lr.ph ], [ 0, %5 ]
  %.06472 = phi ptr [ %15, %.lr.ph ], [ %7, %5 ]
  %9 = load ptr, ptr %.06472, align 8
  %10 = getelementptr inbounds nuw i8, ptr %9, i64 40
  %11 = load i32, ptr %10, align 8
  %12 = icmp eq i32 %11, 4
  %13 = zext i1 %12 to i32
  %spec.select = add i32 %.06173, %13
  %14 = getelementptr inbounds nuw i8, ptr %.06472, i64 8
  %15 = load ptr, ptr %14, align 8
  %.not68 = icmp eq ptr %15, null
  br i1 %.not68, label %._crit_edge, label %.lr.ph, !llvm.loop !34

._crit_edge.thread:                               ; preds = %5, %._crit_edge
  tail call void @g_list_free_full(ptr noundef %7, ptr noundef nonnull @extcap_free_interface)
  br label %50

.lr.ph78:                                         ; preds = %._crit_edge
  %16 = zext i32 %spec.select to i64
  %17 = tail call noalias ptr @g_malloc0_n(i64 noundef %16, i64 noundef 16) #10
  %18 = getelementptr inbounds nuw i8, ptr %1, i64 24
  store ptr %17, ptr %18, align 8
  %19 = getelementptr inbounds nuw i8, ptr %1, i64 16
  store i32 %spec.select, ptr %19, align 8
  %20 = getelementptr inbounds nuw i8, ptr %4, i64 8
  %21 = getelementptr inbounds nuw i8, ptr %4, i64 16
  %22 = getelementptr inbounds nuw i8, ptr %4, i64 24
  %23 = getelementptr inbounds nuw i8, ptr %0, i64 32
  %24 = getelementptr inbounds nuw i8, ptr %0, i64 8
  br label %25

._crit_edge79:                                    ; preds = %47
  call void @g_list_free_full(ptr noundef nonnull %7, ptr noundef nonnull @extcap_free_interface)
  br label %50

25:                                               ; preds = %.lr.ph78, %47
  %.076 = phi i32 [ 0, %.lr.ph78 ], [ %.1, %47 ]
  %.06675 = phi ptr [ %7, %.lr.ph78 ], [ %49, %47 ]
  %26 = load ptr, ptr %.06675, align 8
  %27 = getelementptr inbounds nuw i8, ptr %26, i64 40
  %28 = load i32, ptr %27, align 8
  %.not70 = icmp eq i32 %28, 4
  br i1 %.not70, label %29, label %47

29:                                               ; preds = %25
  call void @llvm.lifetime.start.p0(i64 32, ptr nonnull %4) #9
  store ptr @.str.9, ptr %4, align 16
  store ptr @.str.2, ptr %20, align 8
  %30 = load ptr, ptr %26, align 8
  store ptr %30, ptr %21, align 16
  store ptr null, ptr %22, align 8
  %31 = call noalias dereferenceable_or_null(32) ptr @g_malloc0(i64 noundef 32) #11
  %32 = load ptr, ptr %18, align 8
  %33 = add i32 %.076, 1
  %34 = zext i32 %.076 to i64
  %35 = getelementptr %struct.extcap_iface_info, ptr %32, i64 %34
  %36 = load ptr, ptr %1, align 8
  store ptr %36, ptr %31, align 8
  %37 = call ptr @g_strdupv(ptr noundef nonnull %4)
  %38 = getelementptr inbounds nuw i8, ptr %31, i64 8
  store ptr %37, ptr %38, align 8
  %39 = getelementptr inbounds nuw i8, ptr %31, i64 16
  store ptr @extcap_process_config_cb, ptr %39, align 8
  %40 = getelementptr inbounds nuw i8, ptr %31, i64 24
  store ptr %35, ptr %40, align 8
  %41 = load ptr, ptr %26, align 8
  %42 = call noalias ptr @g_strdup(ptr noundef %41)
  store ptr %42, ptr %35, align 8
  call void @g_mutex_lock(ptr noundef nonnull %23)
  %43 = load i32, ptr %24, align 8
  %44 = add i32 %43, 1
  store i32 %44, ptr %24, align 8
  call void @g_mutex_unlock(ptr noundef nonnull %23)
  %45 = load ptr, ptr %0, align 8
  %46 = call i32 @g_thread_pool_push(ptr noundef %45, ptr noundef %31, ptr noundef null)
  call void @llvm.lifetime.end.p0(i64 32, ptr nonnull %4) #9
  br label %47

47:                                               ; preds = %25, %29
  %.1 = phi i32 [ %33, %29 ], [ %.076, %25 ]
  %48 = getelementptr inbounds nuw i8, ptr %.06675, i64 8
  %49 = load ptr, ptr %48, align 8
  %.not69 = icmp eq ptr %49, null
  br i1 %.not69, label %._crit_edge79, label %25, !llvm.loop !35

50:                                               ; preds = %._crit_edge.thread, %._crit_edge79, %3
  ret void
}